target datalayout = "e-m:e-p270:32:32-p271:32:32-p272:64:64-i64:64-i128:128-f80:128-n8:16:32:64-S128"
target triple = "x86_64-pc-linux-gnu"

%struct._zval_struct = type { %union._zend_value, %union.anon, %union.anon.2 }
%union._zend_value = type { i64 }
%union.anon = type { i32 }
%union.anon.2 = type { i32 }
%struct._zend_array = type { %struct._zend_refcounted_h, %union.anon.4, i32, %union.anon.6, i32, i32, i32, i32, i64, ptr }
%struct._zend_refcounted_h = type { i32, %union.anon.3 }
%union.anon.3 = type { i32 }
%union.anon.4 = type { i32 }
%union.anon.6 = type { ptr }
%struct._sapi_globals_struct = type { ptr, %struct.sapi_request_info, %struct.sapi_headers_struct, i64, i8, i8, %struct.stat, ptr, ptr, ptr, i64, i32, i8, double, %struct._zend_array, %struct._zval_struct, %struct._zend_fcall_info_cache, %struct.sapi_request_parse_body_context }
%struct.sapi_request_info = type { ptr, ptr, ptr, i64, ptr, ptr, ptr, ptr, i8, i8, i8, ptr, ptr, ptr, ptr, ptr, ptr, ptr, i32, i32, ptr, i32 }
%struct.sapi_headers_struct = type { %struct._zend_llist, i32, i8, ptr, ptr }
%struct._zend_llist = type { ptr, ptr, i64, i64, ptr, i8, ptr }
%struct.stat = type { i64, i64, i64, i32, i32, i32, i32, i64, i64, i64, i64, %struct.timespec, %struct.timespec, %struct.timespec, [3 x i64] }
%struct.timespec = type { i64, i64 }
%struct._zend_fcall_info_cache = type { ptr, ptr, ptr, ptr, ptr }
%struct.sapi_request_parse_body_context = type { i8, [5 x %struct.anon.8] }
%struct.anon.8 = type { i8, i64 }
%struct._php_cgi_globals_struct = type { %struct._zend_array, ptr, i8, i8, i8, i8, i8, i8, i8 }

@sapi_globals = external global %struct._sapi_globals_struct, align 8
@php_cgi_globals = internal global %struct._php_cgi_globals_struct zeroinitializer, align 8
@stderr = external global ptr, align 8
@.str.26 = private unnamed_addr constant [2 x i8] c"\0A\00", align 1
@.str.117 = private unnamed_addr constant [4 x i8] c"%s\0A\00", align 1

; Function Attrs: nounwind uwtable
define internal void @sapi_cgi_log_message(ptr noundef %0, i32 noundef %1) #0 {
  %3 = alloca ptr, align 8
  %4 = alloca i32, align 4
  %5 = alloca ptr, align 8
  %6 = alloca i32, align 4
  %7 = alloca i32, align 4
  %8 = alloca ptr, align 8
  store ptr %0, ptr %3, align 8, !tbaa !63
  store i32 %1, ptr %4, align 4, !tbaa !73
  %9 = call i32 @fcgi_is_fastcgi()
  %10 = icmp ne i32 %9, 0
  br i1 %10, label %11, label %49

11:                                               ; preds = %2
  %12 = load i8, ptr getelementptr inbounds nuw (%struct._php_cgi_globals_struct, ptr @php_cgi_globals, i32 0, i32 8), align 2, !tbaa !137, !range !71, !noundef !72
  %13 = trunc i8 %12 to i1
  br i1 %13, label %14, label %49

14:                                               ; preds = %11
  call void @llvm.lifetime.start.p0(i64 8, ptr %5) #20
  %15 = load ptr, ptr @sapi_globals, align 8, !tbaa !46
  store ptr %15, ptr %5, align 8, !tbaa !61
  %16 = load ptr, ptr %5, align 8, !tbaa !61
  %17 = icmp ne ptr %16, null
  br i1 %17, label %18, label %44

18:                                               ; preds = %14
  call void @llvm.lifetime.start.p0(i64 4, ptr %6) #20
  call void @llvm.lifetime.start.p0(i64 4, ptr %7) #20
  %19 = load ptr, ptr %3, align 8, !tbaa !63
  %20 = call i64 @strlen(ptr noundef %19) #21
  %21 = trunc i64 %20 to i32
  store i32 %21, ptr %7, align 4, !tbaa !73
  call void @llvm.lifetime.start.p0(i64 8, ptr %8) #20
  %22 = load i32, ptr %7, align 4, !tbaa !73
  %23 = add nsw i32 %22, 2
  %24 = sext i32 %23 to i64
  %25 = call noalias ptr @malloc(i64 noundef %24) #26
  store ptr %25, ptr %8, align 8, !tbaa !63
  %26 = load ptr, ptr %8, align 8, !tbaa !63
  %27 = load ptr, ptr %3, align 8, !tbaa !63
  %28 = load i32, ptr %7, align 4, !tbaa !73
  %29 = sext i32 %28 to i64
  call void @llvm.memcpy.p0.p0.i64(ptr align 1 %26, ptr align 1 %27, i64 %29, i1 false)
  %30 = load ptr, ptr %8, align 8, !tbaa !63
  %31 = load i32, ptr %7, align 4, !tbaa !73
  %32 = sext i32 %31 to i64
  %33 = getelementptr inbounds i8, ptr %30, i64 %32
  call void @llvm.memcpy.p0.p0.i64(ptr align 1 %33, ptr align 1 @.str.26, i64 2, i1 false)
  %34 = load ptr, ptr %5, align 8, !tbaa !61
  %35 = load ptr, ptr %8, align 8, !tbaa !63
  %36 = load i32, ptr %7, align 4, !tbaa !73
  %37 = add nsw i32 %36, 1
  %38 = call i32 @fcgi_write(ptr noundef %34, i32 noundef 7, ptr noundef %35, i32 noundef %37)
  store i32 %38, ptr %6, align 4, !tbaa !73
  %39 = load ptr, ptr %8, align 8, !tbaa !63
  call void @free(ptr noundef %39) #20
  %40 = load i32, ptr %6, align 4, !tbaa !73
  %41 = icmp slt i32 %40, 0
  br i1 %41, label %42, label %43

42:                                               ; preds = %18
  call void @php_handle_aborted_connection()
  br label %43

43:                                               ; preds = %42, %18
  call void @llvm.lifetime.end.p0(i64 8, ptr %8) #20
  call void @llvm.lifetime.end.p0(i64 4, ptr %7) #20
  call void @llvm.lifetime.end.p0(i64 4, ptr %6) #20
  br label %48

44:                                               ; preds = %14
  %45 = load ptr, ptr @stderr, align 8, !tbaa !93
  %46 = load ptr, ptr %3, align 8, !tbaa !63
  %47 = call i32 (ptr, ptr, ...) @fprintf(ptr noundef %45, ptr noundef @.str.117, ptr noundef %46) #20
  br label %48

48:                                               ; preds = %44, %43
  call void @llvm.lifetime.end.p0(i64 8, ptr %5) #20
  br label %53

49:                                               ; preds = %11, %2
  %50 = load ptr, ptr @stderr, align 8, !tbaa !93
  %51 = load ptr, ptr %3, align 8, !tbaa !63
  %52 = call i32 (ptr, ptr, ...) @fprintf(ptr noundef %50, ptr noundef @.str.117, ptr noundef %51) #20
  br label %53

53:                                               ; preds = %49, %48
  ret void
}