; Function Attrs: nounwind uwtable
define internal void @sapi_cgi_log_message(ptr noundef %0, i32 %1) #0 {
  %3 = tail call i32 @fcgi_is_fastcgi() #29
  %.not = icmp eq i32 %3, 0
  br i1 %.not, label %24, label %4

4:                                                ; preds = %2
  %5 = load i8, ptr getelementptr inbounds nuw (i8, ptr @php_cgi_globals, i64 70), align 2, !tbaa !74, !range !91, !noundef !92
  %6 = trunc nuw i8 %5 to i1
  br i1 %6, label %7, label %24

7:                                                ; preds = %4
  %8 = load ptr, ptr @sapi_globals, align 8, !tbaa !44
  %.not14 = icmp eq ptr %8, null
  br i1 %.not14, label %21, label %9

9:                                                ; preds = %7
  %10 = tail call i64 @strlen(ptr noundef nonnull dereferenceable(1) %0) #30
  %11 = trunc i64 %10 to i32
  %12 = shl i64 %10, 32
  %sext = add i64 %12, 8589934592
  %13 = ashr exact i64 %sext, 32
  %14 = tail call noalias ptr @malloc(i64 noundef %13) #31
  %15 = ashr exact i64 %12, 32
  tail call void @llvm.memcpy.p0.p0.i64(ptr align 1 %14, ptr nonnull align 1 %0, i64 %15, i1 false)
  %16 = getelementptr inbounds i8, ptr %14, i64 %15
  store i16 10, ptr %16, align 1
  %17 = add nsw i32 %11, 1
  %18 = tail call i32 @fcgi_write(ptr noundef nonnull %8, i32 noundef 7, ptr noundef %14, i32 noundef %17) #29
  tail call void @free(ptr noundef %14) #29
  %19 = icmp slt i32 %18, 0
  br i1 %19, label %20, label %27

20:                                               ; preds = %9
  tail call void @php_handle_aborted_connection() #29
  br label %27

21:                                               ; preds = %7
  %22 = load ptr, ptr @stderr, align 8, !tbaa !95
  %23 = tail call i32 (ptr, ptr, ...) @fprintf(ptr noundef %22, ptr noundef nonnull @.str.117, ptr noundef %0) #34
  br label %27

24:                                               ; preds = %4, %2
  %25 = load ptr, ptr @stderr, align 8, !tbaa !95
  %26 = tail call i32 (ptr, ptr, ...) @fprintf(ptr noundef %25, ptr noundef nonnull @.str.117, ptr noundef %0) #34
  br label %27

27:                                               ; preds = %21, %20, %9, %24
  ret void
}